; ModuleID = '54/1816.c'
source_filename = "54/1816.c"
target datalayout = "e-m:e-p270:32:32-p271:32:32-p272:64:64-i64:64-f80:128-n8:16:32:64-S128"
target triple = "x86_64-pc-linux-gnu"

@.str = private unnamed_addr constant [6 x i8] c"%d %d\00", align 1
@.str.1 = private unnamed_addr constant [4 x i8] c"%d\0A\00", align 1

; Function Attrs: noinline nounwind uwtable
define dso_local void @main() #0 {
  %1 = alloca i32, align 4
  %2 = alloca i32, align 4
  %3 = alloca i32, align 4
  %4 = alloca i32, align 4
  %5 = alloca i32, align 4
  %6 = alloca i32, align 4
  %7 = call i32 (i8*, ...) @__isoc99_scanf(i8* getelementptr inbounds ([6 x i8], [6 x i8]* @.str, i64 0, i64 0), i32* %4, i32* %5)
  %8 = load i32, i32* %4, align 4
  store i32 %8, i32* %3, align 4
  br label %9

9:                                                ; preds = %58, %0
  %10 = load i32, i32* %3, align 4
  store i32 %10, i32* %6, align 4
  store i32 1, i32* %1, align 4
  br label %11

11:                                               ; preds = %42, %9
  %12 = load i32, i32* %1, align 4
  %13 = load i32, i32* %4, align 4
  %14 = icmp sle i32 %12, %13
  br i1 %14, label %15, label %45

15:                                               ; preds = %11
  %16 = load i32, i32* %5, align 4
  %17 = load i32, i32* %6, align 4
  %18 = load i32, i32* %6, align 4
  %19 = load i32, i32* %4, align 4
  %20 = sdiv i32 %18, %19
  %21 = load i32, i32* %4, align 4
  %22 = mul nsw i32 %20, %21
  %23 = sub nsw i32 %17, %22
  %24 = icmp ne i32 %16, %23
  br i1 %24, label %25, label %33

25:                                               ; preds = %15
  %26 = load i32, i32* %6, align 4
  %27 = load i32, i32* %5, align 4
  %28 = sub nsw i32 %26, %27
  %29 = load i32, i32* %6, align 4
  %30 = load i32, i32* %4, align 4
  %31 = sdiv i32 %29, %30
  %32 = sub nsw i32 %28, %31
  store i32 %32, i32* %6, align 4
  br label %45

33:                                               ; preds = %15
  %34 = load i32, i32* %6, align 4
  %35 = load i32, i32* %5, align 4
  %36 = sub nsw i32 %34, %35
  %37 = load i32, i32* %6, align 4
  %38 = load i32, i32* %4, align 4
  %39 = sdiv i32 %37, %38
  %40 = sub nsw i32 %36, %39
  store i32 %40, i32* %6, align 4
  br label %41

41:                                               ; preds = %33
  br label %42

42:                                               ; preds = %41
  %43 = load i32, i32* %1, align 4
  %44 = add nsw i32 %43, 1
  store i32 %44, i32* %1, align 4
  br label %11

45:                                               ; preds = %25, %11
  %46 = load i32, i32* %1, align 4
  %47 = load i32, i32* %4, align 4
  %48 = add nsw i32 %47, 1
  %49 = icmp eq i32 %46, %48
  br i1 %49, label %50, label %57

50:                                               ; preds = %45
  %51 = load i32, i32* %6, align 4
  %52 = load i32, i32* %4, align 4
  %53 = sub nsw i32 %52, 1
  %54 = sdiv i32 %51, %53
  %55 = icmp sge i32 %54, 1
  br i1 %55, label %56, label %57

56:                                               ; preds = %50
  br label %61

57:                                               ; preds = %50, %45
  br label %58

58:                                               ; preds = %57
  %59 = load i32, i32* %3, align 4
  %60 = add nsw i32 %59, 1
  store i32 %60, i32* %3, align 4
  br label %9

61:                                               ; preds = %56
  %62 = load i32, i32* %3, align 4
  %63 = call i32 (i8*, ...) @printf(i8* getelementptr inbounds ([4 x i8], [4 x i8]* @.str.1, i64 0, i64 0), i32 %62)
  ret void
}

declare dso_local i32 @__isoc99_scanf(i8*, ...) #1

declare dso_local i32 @printf(i8*, ...) #1


!llvm.module.flags = !{!0}
!llvm.ident = !{!1}

!0 = !{i32 1, !"wchar_size", i32 4}
!1 = !{!"clang version 10.0.0-4ubuntu1 "}
