; ModuleID = 'source-C-CXX/53/1816.c'
source_filename = "source-C-CXX/53/1816.c"
target datalayout = "e-m:e-p270:32:32-p271:32:32-p272:64:64-i64:64-f80:128-n8:16:32:64-S128"
target triple = "x86_64-pc-linux-gnu"

@.str = private unnamed_addr constant [6 x i8] c"%d %d\00", align 1
@.str.1 = private unnamed_addr constant [4 x i8] c"%d\0A\00", align 1

; Function Attrs: nofree nounwind sspstrong uwtable
define dso_local void @main() local_unnamed_addr #0 {
  %1 = alloca i32, align 4
  %2 = alloca i32, align 4
  %3 = bitcast i32* %1 to i8*
  call void @llvm.lifetime.start.p0i8(i64 4, i8* nonnull %3) #3
  %4 = bitcast i32* %2 to i8*
  call void @llvm.lifetime.start.p0i8(i64 4, i8* nonnull %4) #3
  %5 = call i32 (i8*, ...) @__isoc99_scanf(i8* getelementptr inbounds ([6 x i8], [6 x i8]* @.str, i64 0, i64 0), i32* nonnull %1, i32* nonnull %2)
  %6 = load i32, i32* %1, align 4, !tbaa !5
  %7 = add nsw i32 %6, -1
  %8 = load i32, i32* %2, align 4
  %9 = icmp slt i32 %6, 1
  %10 = add i32 %6, 1
  br i1 %9, label %11, label %19

11:                                               ; preds = %0
  %12 = icmp eq i32 %6, 0
  br i1 %12, label %13, label %18

13:                                               ; preds = %11, %13
  %14 = phi i32 [ %17, %13 ], [ 0, %11 ]
  %15 = sdiv i32 %14, %7
  %16 = icmp sgt i32 %15, 0
  %17 = add nuw nsw i32 %14, 1
  br i1 %16, label %40, label %13

18:                                               ; preds = %11, %18
  br label %18

19:                                               ; preds = %0, %38
  %20 = phi i32 [ %39, %38 ], [ %6, %0 ]
  br label %21

21:                                               ; preds = %19, %30
  %22 = phi i32 [ %20, %19 ], [ %29, %30 ]
  %23 = phi i32 [ 1, %19 ], [ %31, %30 ]
  %24 = sdiv i32 %22, %6
  %25 = mul nsw i32 %24, %6
  %26 = srem i32 %22, %6
  %27 = icmp eq i32 %8, %26
  %28 = add i32 %8, %24
  %29 = sub i32 %22, %28
  br i1 %27, label %30, label %33

30:                                               ; preds = %21
  %31 = add nuw i32 %23, 1
  %32 = icmp eq i32 %23, %6
  br i1 %32, label %35, label %21, !llvm.loop !9

33:                                               ; preds = %21
  %34 = icmp eq i32 %23, %10
  br i1 %34, label %35, label %38

35:                                               ; preds = %30, %33
  %36 = sdiv i32 %29, %7
  %37 = icmp sgt i32 %36, 0
  br i1 %37, label %40, label %38

38:                                               ; preds = %33, %35
  %39 = add nsw i32 %20, 1
  br label %19

40:                                               ; preds = %35, %13
  %41 = phi i32 [ %14, %13 ], [ %20, %35 ]
  %42 = call i32 (i8*, ...) @printf(i8* nonnull dereferenceable(1) getelementptr inbounds ([4 x i8], [4 x i8]* @.str.1, i64 0, i64 0), i32 %41)
  call void @llvm.lifetime.end.p0i8(i64 4, i8* nonnull %4) #3
  call void @llvm.lifetime.end.p0i8(i64 4, i8* nonnull %3) #3
  ret void
}

; Function Attrs: argmemonly mustprogress nofree nosync nounwind willreturn
declare void @llvm.lifetime.start.p0i8(i64 immarg, i8* nocapture) #1

; Function Attrs: nofree nounwind
declare noundef i32 @__isoc99_scanf(i8* nocapture noundef readonly, ...) local_unnamed_addr #2

; Function Attrs: nofree nounwind
declare noundef i32 @printf(i8* nocapture noundef readonly, ...) local_unnamed_addr #2

; Function Attrs: argmemonly mustprogress nofree nosync nounwind willreturn
declare void @llvm.lifetime.end.p0i8(i64 immarg, i8* nocapture) #1


!llvm.module.flags = !{!0, !1, !2, !3}
!llvm.ident = !{!4}

!0 = !{i32 1, !"wchar_size", i32 4}
!1 = !{i32 7, !"PIC Level", i32 2}
!2 = !{i32 7, !"PIE Level", i32 2}
!3 = !{i32 7, !"uwtable", i32 1}
!4 = !{!"clang version 13.0.0"}
!5 = !{!6, !6, i64 0}
!6 = !{!"int", !7, i64 0}
!7 = !{!"omnipotent char", !8, i64 0}
!8 = !{!"Simple C/C++ TBAA"}
!9 = distinct !{!9, !10}
!10 = !{!"llvm.loop.mustprogress"}
